ccopy_reg
_reconstructor
p0
(cnetworkx.classes.digraph
DiGraph
p1
c__builtin__
object
p2
Ntp3
Rp4
(dp5
S'node'
p6
(dp7
S'Turkey'
p8
(dp9
sVGroup
p10
(dp11
sVUSA
p12
(dp13
sVFrance
p14
(dp15
sVItaly
p16
(dp17
sVIsrael
p18
(dp19
sVIran
p20
(dp21
sVGermany
p22
(dp23
sVArmenia
p24
(dp25
sVIraq
p26
(dp27
sVSpain
p28
(dp29
sVMoldova
p30
(dp31
sVSyria
p32
(dp33
sVRussia
p34
(dp35
sVKurdistan
p36
(dp37
sVIndia
p38
(dp39
sVAzerbaijan
p40
(dp41
sVTatar
p42
(dp43
sVUK
p44
(dp45
sVGreece
p46
(dp47
sVArabia
p48
(dp49
sVCrimea
p50
(dp51
ssS'graph'
p52
(dp53
sS'succ'
p54
(dp55
g8
(dp56
g8
(dp57
S'weight'
p58
I19281
ssg16
(dp59
g58
I9
ssg12
(dp60
g58
I2
ssg14
(dp61
g58
I41
ssg18
(dp62
g58
I325
ssg20
(dp63
g58
I103
ssg22
(dp64
g58
I11
ssg24
(dp65
g58
I787
ssg26
(dp66
g58
I49
ssg28
(dp67
g58
I7
ssg30
(dp68
g58
I113
ssg32
(dp69
g58
I54
ssg34
(dp70
g58
I3
ssg36
(dp71
g58
I4
ssg38
(dp72
g58
I7
ssg40
(dp73
g58
I29
ssg42
(dp74
g58
I106
ssg44
(dp75
g58
I2
ssg46
(dp76
g58
I550
ssg48
(dp77
g58
I103
ssg50
(dp78
g58
I106
sssg10
(dp79
g8
(dp80
g58
I906
ssg32
(dp81
g58
I4
ssg18
(dp82
g58
I9
ssg26
(dp83
g58
I2
ssg20
(dp84
g58
I10
ssg44
(dp85
g58
I1
ssg12
(dp86
g58
I1
ssg14
(dp87
g58
I4
ssg38
(dp88
g58
I1
ssg40
(dp89
g58
I2
ssg30
(dp90
g58
I13
ssg24
(dp91
g58
I71
ssg46
(dp92
g58
I30
ssg48
(dp93
g58
I6
ssg50
(dp94
g58
I5
ssg42
(dp95
g58
I5
sssg12
(dp96
g8
(dp97
g58
I15
ssg12
(dp98
g58
I3
ssg30
(dp99
g58
I21
ssg44
(dp100
g58
I3
ssg46
(dp101
g58
I1
ssg14
(dp102
g58
I6
sssg14
(dp103
g8
(dp104
g58
I1
sssg16
(dp105
sg18
(dp106
g8
(dp107
g58
I18
ssg18
(dp108
g58
I7
ssg14
(dp109
g58
I1
ssg28
(dp110
g58
I1
ssg46
(dp111
g58
I1
sssg20
(dp112
sg22
(dp113
sg24
(dp114
g8
(dp115
g58
I61
ssg18
(dp116
g58
I2
ssg24
(dp117
g58
I16
sssg26
(dp118
sg28
(dp119
sg30
(dp120
sg32
(dp121
sg34
(dp122
sg36
(dp123
g8
(dp124
g58
I27
ssg20
(dp125
g58
I1
sssg38
(dp126
sg40
(dp127
sg42
(dp128
sg44
(dp129
sg46
(dp130
g8
(dp131
g58
I285
ssg18
(dp132
g58
I5
ssg40
(dp133
g58
I2
ssg30
(dp134
g58
I1
ssg24
(dp135
g58
I37
ssg46
(dp136
g58
I15
sssg48
(dp137
sg50
(dp138
ssS'edge'
p139
g55
sS'pred'
p140
(dp141
g8
(dp142
g8
g57
sg18
g107
sg10
g80
sg12
g97
sg36
g124
sg14
g104
sg24
g115
sg46
g131
ssg10
(dp143
sg12
(dp144
g8
g60
sg10
g86
sg12
g98
ssg14
(dp145
g8
g61
sg18
g109
sg10
g87
sg12
g102
ssg16
(dp146
g8
g59
ssg18
(dp147
g8
g62
sg18
g108
sg10
g82
sg24
g116
sg46
g132
ssg20
(dp148
g8
g63
sg36
g125
sg10
g84
ssg22
(dp149
g8
g64
ssg24
(dp150
g8
g65
sg10
g91
sg24
g117
sg46
g135
ssg26
(dp151
g8
g66
sg10
g83
ssg28
(dp152
g8
g67
sg18
g110
ssg30
(dp153
g8
g68
sg10
g90
sg12
g99
sg46
g134
ssg32
(dp154
g8
g69
sg10
g81
ssg34
(dp155
g8
g70
ssg36
(dp156
g8
g71
ssg38
(dp157
g8
g72
sg10
g88
ssg40
(dp158
g8
g73
sg10
g89
sg46
g133
ssg42
(dp159
g8
g74
sg10
g95
ssg44
(dp160
g8
g75
sg10
g85
sg12
g100
ssg46
(dp161
g8
g76
sg18
g111
sg10
g92
sg12
g101
sg46
g136
ssg48
(dp162
g8
g77
sg10
g93
ssg50
(dp163
g8
g78
sg10
g94
sssS'adj'
p164
g55
sb.