ccopy_reg
_reconstructor
p0
(cnetworkx.classes.graph
Graph
p1
c__builtin__
object
p2
Ntp3
Rp4
(dp5
S'node'
p6
(dp7
S'Turkey'
p8
(dp9
sVIsrael
p10
(dp11
sVGroup
p12
(dp13
sVUSA
p14
(dp15
sVKurdistan
p16
(dp17
sVFrance
p18
(dp19
sVArmenia
p20
(dp21
sVGreece
p22
(dp23
ssS'graph'
p24
(dp25
sS'edge'
p26
(dp27
g8
(dp28
g8
(dp29
S'weight'
p30
I69602
ssg10
(dp31
g30
I164
ssg12
(dp32
g30
I3969
ssg14
(dp33
g30
I200
ssg16
(dp34
g30
I420
ssg18
(dp35
g30
I20
ssg20
(dp36
g30
I526
ssg22
(dp37
g30
I5907
sssg10
(dp38
g8
g31
sg12
(dp39
g30
I4
sssg12
(dp40
g8
g32
sg10
g39
sg14
(dp41
g30
I94
ssg16
(dp42
g30
I30
ssg22
(dp43
g30
I13
sssg14
(dp44
g8
g33
sg12
g41
sg14
(dp45
g30
I90
sssg16
(dp46
g8
g34
sg12
g42
ssg18
(dp47
g8
g35
ssg20
(dp48
g8
g36
sg22
(dp49
g30
I90
sssg22
(dp50
g8
g37
sg12
g43
sg20
g49
sg22
(dp51
g30
I703
ssssS'adj'
p52
g27
sb.